target datalayout = "e-m:e-p270:32:32-p271:32:32-p272:64:64-i64:64-i128:128-f80:128-n8:16:32:64-S128"
target triple = "x86_64-pc-linux-gnu"

%struct.PJconsts = type { ptr, ptr, ptr, ptr, ptr, ptr, ptr, ptr, ptr, ptr, ptr, ptr, i32, ptr, ptr, ptr, ptr, ptr, ptr, ptr, ptr, double, double, double, double, double, double, double, double, double, double, double, double, double, double, double, double, double, double, double, double, double, double, i32, i32, i32, i32, i32, i32, i32, i32, i32, i32, i32, ptr, ptr, ptr, ptr, ptr, ptr, double, double, double, double, double, double, double, double, double, double, double, i32, [7 x double], i32, ptr, ptr, double, double, i32, [4 x i8], %"class.std::shared_ptr", i8, double, i8, %"class.std::__cxx11::basic_string", %"class.std::__cxx11::basic_string", %"class.std::__cxx11::basic_string", i8, %"class.std::vector", i32, %"class.std::vector.3", i32, i8, i8, i8, ptr }
%"class.std::shared_ptr" = type { %"class.std::__shared_ptr" }
%"class.std::__shared_ptr" = type { ptr, %"class.std::__shared_count" }
%"class.std::__shared_count" = type { ptr }
%"class.std::__cxx11::basic_string" = type { %"struct.std::__cxx11::basic_string<char>::_Alloc_hider", i64, %union.anon }
%"struct.std::__cxx11::basic_string<char>::_Alloc_hider" = type { ptr }
%union.anon = type { i64, [8 x i8] }
%"class.std::vector" = type { %"struct.std::_Vector_base" }
%"struct.std::_Vector_base" = type { %"struct.std::_Vector_base<osgeo::proj::operation::GridDescription, std::allocator<osgeo::proj::operation::GridDescription>>::_Vector_impl" }
%"struct.std::_Vector_base<osgeo::proj::operation::GridDescription, std::allocator<osgeo::proj::operation::GridDescription>>::_Vector_impl" = type { %"struct.std::_Vector_base<osgeo::proj::operation::GridDescription, std::allocator<osgeo::proj::operation::GridDescription>>::_Vector_impl_data" }
%"struct.std::_Vector_base<osgeo::proj::operation::GridDescription, std::allocator<osgeo::proj::operation::GridDescription>>::_Vector_impl_data" = type { ptr, ptr, ptr }
%"class.std::vector.3" = type { %"struct.std::_Vector_base.4" }
%"struct.std::_Vector_base.4" = type { %"struct.std::_Vector_base<PJCoordOperation, std::allocator<PJCoordOperation>>::_Vector_impl" }
%"struct.std::_Vector_base<PJCoordOperation, std::allocator<PJCoordOperation>>::_Vector_impl" = type { %"struct.std::_Vector_base<PJCoordOperation, std::allocator<PJCoordOperation>>::_Vector_impl_data" }
%"struct.std::_Vector_base<PJCoordOperation, std::allocator<PJCoordOperation>>::_Vector_impl_data" = type { ptr, ptr, ptr }
%"struct.(anonymous namespace)::pj_opaque_unitconvert" = type { i32, i32, double, double }
%struct.PJ_XYZ = type { double, double, double }
%struct.PJ_LPZ = type { double, double, double }
%union.PJ_COORD = type { [4 x double] }
%struct.PJ_XY = type { double, double }
%struct.PJ_LP = type { double, double }

; Function Attrs: mustprogress nounwind uwtable
define internal { double, double } @_ZL10forward_2d5PJ_LPP8PJconsts(double %0, double %1, ptr noundef %2) #4 {
  %4 = alloca %struct.PJ_XY, align 8
  %5 = alloca %struct.PJ_LP, align 8
  %6 = alloca ptr, align 8
  %7 = alloca ptr, align 8
  %8 = alloca %union.PJ_COORD, align 8
  %9 = getelementptr inbounds nuw { double, double }, ptr %5, i32 0, i32 0
  store double %0, ptr %9, align 8
  %10 = getelementptr inbounds nuw { double, double }, ptr %5, i32 0, i32 1
  store double %1, ptr %10, align 8
  store ptr %2, ptr %6, align 8, !tbaa !3
  call void @llvm.lifetime.start.p0(i64 8, ptr %7) #10
  %11 = load ptr, ptr %6, align 8, !tbaa !3
  %12 = getelementptr inbounds nuw %struct.PJconsts, ptr %11, i32 0, i32 11
  %13 = load ptr, ptr %12, align 8, !tbaa !44
  store ptr %13, ptr %7, align 8, !tbaa !41
  call void @llvm.lifetime.start.p0(i64 32, ptr %8) #10
  call void @llvm.memset.p0.i64(ptr align 8 %8, i8 0, i64 32, i1 false)
  call void @llvm.memcpy.p0.p0.i64(ptr align 8 %8, ptr align 8 %5, i64 16, i1 false), !tbaa.struct !74
  %14 = load ptr, ptr %7, align 8, !tbaa !41
  %15 = getelementptr inbounds nuw %"struct.(anonymous namespace)::pj_opaque_unitconvert", ptr %14, i32 0, i32 2
  %16 = load double, ptr %15, align 8, !tbaa !56
  %17 = getelementptr inbounds nuw %struct.PJ_XY, ptr %8, i32 0, i32 0
  %18 = load double, ptr %17, align 8, !tbaa !60
  %19 = fmul double %18, %16
  store double %19, ptr %17, align 8, !tbaa !60
  %20 = load ptr, ptr %7, align 8, !tbaa !41
  %21 = getelementptr inbounds nuw %"struct.(anonymous namespace)::pj_opaque_unitconvert", ptr %20, i32 0, i32 2
  %22 = load double, ptr %21, align 8, !tbaa !56
  %23 = getelementptr inbounds nuw %struct.PJ_XY, ptr %8, i32 0, i32 1
  %24 = load double, ptr %23, align 8, !tbaa !60
  %25 = fmul double %24, %22
  store double %25, ptr %23, align 8, !tbaa !60
  call void @llvm.memcpy.p0.p0.i64(ptr align 8 %4, ptr align 8 %8, i64 16, i1 false), !tbaa.struct !74
  call void @llvm.lifetime.end.p0(i64 32, ptr %8) #10
  call void @llvm.lifetime.end.p0(i64 8, ptr %7) #10
  %26 = load { double, double }, ptr %4, align 8
  ret { double, double } %26
}

; Function Attrs: mustprogress uwtable
define internal void @_ZL10forward_3d6PJ_LPZP8PJconsts(ptr dead_on_unwind noalias writable sret(%struct.PJ_XYZ) align 8 %0, ptr noundef byval(%struct.PJ_LPZ) align 8 %1, ptr noundef %2) #0 {
  %4 = alloca ptr, align 8
  %5 = alloca ptr, align 8
  %6 = alloca %union.PJ_COORD, align 8
  %7 = alloca %struct.PJ_XY, align 8
  %8 = alloca %struct.PJ_LP, align 8
  store ptr %2, ptr %4, align 8, !tbaa !3
  call void @llvm.lifetime.start.p0(i64 8, ptr %5) #10
  %9 = load ptr, ptr %4, align 8, !tbaa !3
  %10 = getelementptr inbounds nuw %struct.PJconsts, ptr %9, i32 0, i32 11
  %11 = load ptr, ptr %10, align 8, !tbaa !44
  store ptr %11, ptr %5, align 8, !tbaa !41
  call void @llvm.lifetime.start.p0(i64 32, ptr %6) #10
  call void @llvm.memset.p0.i64(ptr align 8 %6, i8 0, i64 32, i1 false)
  call void @llvm.memcpy.p0.p0.i64(ptr align 8 %6, ptr align 8 %1, i64 24, i1 false), !tbaa.struct !71
  call void @llvm.lifetime.start.p0(i64 16, ptr %7) #10
  call void @llvm.memcpy.p0.p0.i64(ptr align 8 %8, ptr align 8 %6, i64 16, i1 false), !tbaa.struct !74
  %12 = load ptr, ptr %4, align 8, !tbaa !3
  %13 = getelementptr inbounds nuw { double, double }, ptr %8, i32 0, i32 0
  %14 = load double, ptr %13, align 8
  %15 = getelementptr inbounds nuw { double, double }, ptr %8, i32 0, i32 1
  %16 = load double, ptr %15, align 8
  %17 = call { double, double } @_ZL10forward_2d5PJ_LPP8PJconsts(double %14, double %16, ptr noundef %12)
  %18 = getelementptr inbounds nuw { double, double }, ptr %7, i32 0, i32 0
  %19 = extractvalue { double, double } %17, 0
  store double %19, ptr %18, align 8
  %20 = getelementptr inbounds nuw { double, double }, ptr %7, i32 0, i32 1
  %21 = extractvalue { double, double } %17, 1
  store double %21, ptr %20, align 8
  call void @llvm.memcpy.p0.p0.i64(ptr align 8 %6, ptr align 8 %7, i64 16, i1 false), !tbaa.struct !74
  %22 = load ptr, ptr %5, align 8, !tbaa !41
  %23 = getelementptr inbounds nuw %"struct.(anonymous namespace)::pj_opaque_unitconvert", ptr %22, i32 0, i32 3
  %24 = load double, ptr %23, align 8, !tbaa !57
  %25 = getelementptr inbounds nuw %struct.PJ_XYZ, ptr %6, i32 0, i32 2
  %26 = load double, ptr %25, align 8, !tbaa !60
  %27 = fmul double %26, %24
  store double %27, ptr %25, align 8, !tbaa !60
  call void @llvm.memcpy.p0.p0.i64(ptr align 8 %0, ptr align 8 %6, i64 24, i1 false), !tbaa.struct !71
  call void @llvm.lifetime.end.p0(i64 16, ptr %7) #10
  call void @llvm.lifetime.end.p0(i64 32, ptr %6) #10
  call void @llvm.lifetime.end.p0(i64 8, ptr %5) #10
  ret void
}